Certificate:
    Data:
        Version: 3 (0x2)
        Serial Number:
            48:fd:5e:db:e9:cd:b8:01:06:c1:38:0a:59:cb:f3:19
        Signature Algorithm: sha256WithRSAEncryption
        Issuer: CN=ersa304
        Validity
            Not Before: Sep 12 14:13:40 2019 GMT
            Not After : Aug 27 14:13:40 2022 GMT
        Subject: CN=c02
        Subject Public Key Info:
            Public Key Algorithm: rsaEncryption
                RSA Public-Key: (2048 bit)
                Modulus:
                    00:9a:0e:a2:73:a4:b7:55:d3:24:8e:13:1f:0f:00:
                    37:5e:db:5a:59:ba:29:ff:6f:5d:dc:3e:e8:7a:58:
                    2a:bd:ba:6d:db:98:45:8a:74:7b:1f:f9:4f:51:78:
                    14:56:92:60:95:a2:eb:d8:d1:60:77:38:93:aa:c0:
                    49:5e:5c:1f:d1:b5:1a:6b:2f:fd:50:a1:c3:36:bd:
                    90:f6:83:c9:17:55:51:2d:f5:36:85:03:c9:4f:53:
                    24:2e:b4:37:bd:20:74:59:90:9a:a8:a3:20:e7:f0:
                    5d:cb:c7:2d:10:d9:22:58:44:4e:dd:0c:3d:3e:81:
                    83:b2:b6:81:89:dd:40:9b:64:11:13:9b:9d:3a:7b:
                    2c:53:6f:0b:1c:86:df:46:b5:80:54:d3:f0:a6:58:
                    4a:d2:aa:fc:3a:78:a7:08:25:8c:5d:32:6c:f4:95:
                    e6:be:ca:d1:b5:3f:9b:6a:0f:f5:f4:51:63:8d:a3:
                    37:6b:6d:79:b2:fa:ee:c6:d0:8a:44:21:20:0a:ed:
                    1b:69:a9:c0:f5:67:58:5f:17:43:b1:01:b8:6b:3e:
                    ee:de:88:b8:c8:7e:29:f4:b2:5a:9c:cd:24:2d:b5:
                    4f:6f:0c:2d:20:32:5e:22:13:a7:98:46:2e:a2:47:
                    2f:63:09:f7:eb:7d:73:5c:62:81:1d:fe:e0:e0:77:
                    13:f5
                Exponent: 65537 (0x10001)
        X509v3 extensions:
            X509v3 Basic Constraints: 
                CA:FALSE
            X509v3 Subject Key Identifier: 
                B8:19:A7:AF:13:3B:AA:74:3D:42:B7:88:04:09:B9:1F:5B:67:AA:D4
            X509v3 Authority Key Identifier: 
                keyid:4E:02:31:11:A4:49:08:E8:CF:67:B9:D1:35:72:34:F6:3E:EE:D8:31
                DirName:/CN=ersa304
                serial:44:DB:6F:4B:FA:A3:C3:A1:AF:82:C2:44:50:5C:33:05:6A:07:6B:F6

            X509v3 Extended Key Usage: 
                TLS Web Client Authentication
            X509v3 Key Usage: 
                Digital Signature
    Signature Algorithm: sha256WithRSAEncryption
         d5:75:bf:cb:e8:a0:be:16:9e:bc:35:eb:f3:8f:9c:4d:c8:f5:
         f5:2e:fd:38:b3:a9:70:fd:19:ab:c5:e9:f9:6d:b2:28:0a:4d:
         86:e6:9f:58:98:44:2c:58:6b:21:dd:78:b7:45:13:cd:a2:d0:
         5d:ef:63:c6:6c:c3:fe:80:50:57:19:77:51:cb:33:25:06:3a:
         1b:08:fd:32:2b:17:4d:3c:4d:fe:29:12:fa:c7:b6:d4:0b:18:
         1c:04:93:e4:bd:bd:23:af:31:a9:c2:4b:76:50:4b:91:c5:05:
         11:21:23:fb:48:60:9e:5b:8e:9a:5b:52:27:99:41:37:c8:3c:
         cb:ba:b2:77:ee:cd:cd:de:12:62:92:44:fa:20:4f:e0:fc:d9:
         19:f1:6a:97:34:7e:be:b0:6e:c7:33:18:f1:d6:d7:dd:dd:86:
         66:79:69:83:23:0c:49:68:40:f7:1d:3d:e3:07:c3:f1:39:57:
         6c:1e:51:21:94:56:2c:03:89:77:5b:ec:19:38:4b:68:6d:ee:
         b3:d7:7d:a9:04:87:d6:f9:05:e7:89:8f:f0:d0:7f:eb:1b:6e:
         b1:c2:78:c9:07:1f:7f:62:1b:52:86:79:74:a0:55:65:e1:e8:
         ec:fd:2a:84:d0:54:86:9e:d2:7b:09:17:dd:10:22:f3:63:98:
         cd:4c:7d:34
-----BEGIN CERTIFICATE-----
MIIDSTCCAjGgAwIBAgIQSP1e2+nNuAEGwTgKWcvzGTANBgkqhkiG9w0BAQsFADAS
MRAwDgYDVQQDDAdlcnNhMzA0MB4XDTE5MDkxMjE0MTM0MFoXDTIyMDgyNzE0MTM0
MFowDjEMMAoGA1UEAwwDYzAyMIIBIjANBgkqhkiG9w0BAQEFAAOCAQ8AMIIBCgKC
AQEAmg6ic6S3VdMkjhMfDwA3XttaWbop/29d3D7oelgqvbpt25hFinR7H/lPUXgU
VpJglaLr2NFgdziTqsBJXlwf0bUaay/9UKHDNr2Q9oPJF1VRLfU2hQPJT1MkLrQ3
vSB0WZCaqKMg5/Bdy8ctENkiWERO3Qw9PoGDsraBid1Am2QRE5udOnssU28LHIbf
RrWAVNPwplhK0qr8OninCCWMXTJs9JXmvsrRtT+bag/19FFjjaM3a215svruxtCK
RCEgCu0baanA9WdYXxdDsQG4az7u3oi4yH4p9LJanM0kLbVPbwwtIDJeIhOnmEYu
okcvYwn3631zXGKBHf7g4HcT9QIDAQABo4GeMIGbMAkGA1UdEwQCMAAwHQYDVR0O
BBYEFLgZp68TO6p0PUK3iAQJuR9bZ6rUME0GA1UdIwRGMESAFE4CMRGkSQjoz2e5
0TVyNPY+7tgxoRakFDASMRAwDgYDVQQDDAdlcnNhMzA0ghRE229L+qPDoa+CwkRQ
XDMFagdr9jATBgNVHSUEDDAKBggrBgEFBQcDAjALBgNVHQ8EBAMCB4AwDQYJKoZI
hvcNAQELBQADggEBANV1v8vooL4Wnrw16/OPnE3I9fUu/TizqXD9GavF6fltsigK
TYbmn1iYRCxYayHdeLdFE82i0F3vY8Zsw/6AUFcZd1HLMyUGOhsI/TIrF008Tf4p
EvrHttQLGBwEk+S9vSOvManCS3ZQS5HFBREhI/tIYJ5bjppbUieZQTfIPMu6snfu
zc3eEmKSRPogT+D82Rnxapc0fr6wbsczGPHW193dhmZ5aYMjDEloQPcdPeMHw/E5
V2weUSGUViwDiXdb7Bk4S2ht7rPXfakEh9b5BeeJj/DQf+sbbrHCeMkHH39iG1KG
eXSgVWXh6Oz9KoTQVIae0nsJF90QIvNjmM1MfTQ=
-----END CERTIFICATE-----
