Certificate:
    Data:
        Version: 3 (0x2)
        Serial Number:
            b2:43:62:2c:da:ea:95:c7:0a:d8:58:d7:cb:70:b0:eb
        Signature Algorithm: sha256WithRSAEncryption
        Issuer: CN=ersa-master
        Validity
            Not Before: Sep 12 13:32:37 2019 GMT
            Not After : Aug 27 13:32:37 2022 GMT
        Subject: CN=c01
        Subject Public Key Info:
            Public Key Algorithm: rsaEncryption
                RSA Public-Key: (2048 bit)
                Modulus:
                    00:d6:db:ef:6f:6b:c2:f7:00:5a:b6:a7:6f:c1:24:
                    77:88:e2:6d:f5:1c:12:55:36:8a:a3:19:82:58:45:
                    6c:14:c8:56:11:fe:aa:03:b4:23:5e:2a:58:cf:3e:
                    1a:e0:84:b1:f3:f1:29:c5:05:b9:a8:75:9d:f6:66:
                    87:f7:00:1a:c4:8b:c9:3e:41:2c:f3:d6:b2:03:0a:
                    20:98:59:01:8a:c8:25:c0:bc:c5:e7:32:f5:f3:f2:
                    fa:b7:60:7b:45:c5:30:32:27:3c:8e:6a:aa:b6:d9:
                    a4:52:66:fb:71:36:f8:db:d4:38:ee:46:58:57:e8:
                    29:2a:8c:7f:28:f7:30:3d:26:a2:92:af:cf:e5:e2:
                    74:1b:ef:c7:2b:97:fb:fc:c2:74:1c:c1:99:24:1b:
                    ce:e7:42:3a:5e:5f:2f:e9:cd:a5:58:79:5a:9a:ec:
                    c1:c8:8c:61:8a:4d:e6:63:07:6f:63:4f:dc:50:a6:
                    ba:ab:ba:f5:77:11:45:a3:0a:dc:33:4e:58:72:1d:
                    84:7f:e4:eb:f0:63:e7:ea:93:c4:a5:1f:85:16:0d:
                    e9:e0:a6:33:57:99:6e:97:34:27:3e:80:44:3b:b3:
                    0d:2a:f3:57:c8:c4:42:2a:49:ab:cc:7f:f8:b3:a3:
                    c5:4a:69:4f:64:9c:bd:71:24:81:87:98:9d:66:99:
                    8a:07
                Exponent: 65537 (0x10001)
        X509v3 extensions:
            X509v3 Basic Constraints: 
                CA:FALSE
            X509v3 Subject Key Identifier: 
                96:87:AD:68:4F:16:E4:D8:94:6D:A5:25:71:6B:98:30:56:7D:23:6A
            X509v3 Authority Key Identifier: 
                keyid:BF:24:A3:3F:AC:D4:CD:FF:36:98:63:F0:43:7F:8D:D1:F1:92:F2:29
                DirName:/CN=ersa-master
                serial:60:85:B5:EC:2C:96:90:35:7D:53:77:AE:0B:B0:A3:6B:D8:2F:55:A4

            X509v3 Extended Key Usage: 
                TLS Web Client Authentication
            X509v3 Key Usage: 
                Digital Signature
    Signature Algorithm: sha256WithRSAEncryption
         a2:62:5d:6e:14:1b:fc:fd:5c:e4:59:03:9a:6a:98:47:29:6a:
         b1:2b:94:a9:c4:f1:2b:f4:67:b2:aa:ba:d1:bc:e4:a7:f9:14:
         d3:64:7e:fb:a1:9d:e4:e8:a9:64:68:a2:24:0f:2f:a4:e7:0e:
         06:e5:11:f4:da:6d:03:b3:6e:82:5a:bc:27:fe:c5:97:c3:fe:
         66:7a:82:7e:e3:b7:53:60:70:5a:ed:f2:3b:14:87:9c:61:d9:
         a2:d9:3d:71:19:55:6b:85:9b:0d:40:ea:66:71:8e:b1:df:29:
         31:1a:0e:b7:49:28:1e:ee:d4:e4:d7:95:55:79:58:ef:9c:72:
         e4:94:1d:ff:ab:a3:54:2e:00:9d:95:ee:a4:5c:5a:36:23:df:
         2f:fb:2f:4f:3d:0c:3c:6a:9c:01:31:40:12:8b:20:84:8a:ac:
         c5:d5:d0:94:ff:42:21:94:9d:85:ee:aa:2a:12:72:20:35:39:
         24:1a:96:87:db:5f:36:f5:d8:9a:18:eb:85:03:2a:2b:12:21:
         b5:e7:b5:d4:f5:10:b3:ae:27:b2:08:c1:83:b3:96:3a:b9:b4:
         67:45:ad:eb:1e:1a:4f:aa:dc:de:6f:5c:12:0e:f2:15:37:b1:
         9b:90:62:f8:48:0a:89:a0:ca:99:e5:23:52:31:1b:fa:11:0a:
         dd:27:24:a5
-----BEGIN CERTIFICATE-----
MIIDUjCCAjqgAwIBAgIRALJDYiza6pXHCthY18twsOswDQYJKoZIhvcNAQELBQAw
FjEUMBIGA1UEAwwLZXJzYS1tYXN0ZXIwHhcNMTkwOTEyMTMzMjM3WhcNMjIwODI3
MTMzMjM3WjAOMQwwCgYDVQQDDANjMDEwggEiMA0GCSqGSIb3DQEBAQUAA4IBDwAw
ggEKAoIBAQDW2+9va8L3AFq2p2/BJHeI4m31HBJVNoqjGYJYRWwUyFYR/qoDtCNe
KljPPhrghLHz8SnFBbmodZ32Zof3ABrEi8k+QSzz1rIDCiCYWQGKyCXAvMXnMvXz
8vq3YHtFxTAyJzyOaqq22aRSZvtxNvjb1DjuRlhX6CkqjH8o9zA9JqKSr8/l4nQb
78crl/v8wnQcwZkkG87nQjpeXy/pzaVYeVqa7MHIjGGKTeZjB29jT9xQprqruvV3
EUWjCtwzTlhyHYR/5OvwY+fqk8SlH4UWDengpjNXmW6XNCc+gEQ7sw0q81fIxEIq
SavMf/izo8VKaU9knL1xJIGHmJ1mmYoHAgMBAAGjgaIwgZ8wCQYDVR0TBAIwADAd
BgNVHQ4EFgQUloetaE8W5NiUbaUlcWuYMFZ9I2owUQYDVR0jBEowSIAUvySjP6zU
zf82mGPwQ3+N0fGS8imhGqQYMBYxFDASBgNVBAMMC2Vyc2EtbWFzdGVyghRghbXs
LJaQNX1Td64LsKNr2C9VpDATBgNVHSUEDDAKBggrBgEFBQcDAjALBgNVHQ8EBAMC
B4AwDQYJKoZIhvcNAQELBQADggEBAKJiXW4UG/z9XORZA5pqmEcparErlKnE8Sv0
Z7KqutG85Kf5FNNkfvuhneToqWRooiQPL6TnDgblEfTabQOzboJavCf+xZfD/mZ6
gn7jt1NgcFrt8jsUh5xh2aLZPXEZVWuFmw1A6mZxjrHfKTEaDrdJKB7u1OTXlVV5
WO+ccuSUHf+ro1QuAJ2V7qRcWjYj3y/7L089DDxqnAExQBKLIISKrMXV0JT/QiGU
nYXuqioSciA1OSQalofbXzb12JoY64UDKisSIbXntdT1ELOuJ7IIwYOzljq5tGdF
reseGk+q3N5vXBIO8hU3sZuQYvhIComgypnlI1IxG/oRCt0nJKU=
-----END CERTIFICATE-----
