Certificate:
    Data:
        Version: 3 (0x2)
        Serial Number: 3 (0x3)
        Signature Algorithm: sha256WithRSAEncryption
        Issuer: C=US, ST=CA, L=SanFrancisco, O=Fort-Funston, OU=MyOrganizationalUnit, CN=nopass/name=EasyRSA/emailAddress=me@myhost.mydomain
        Validity
            Not Before: Sep 15 17:54:48 2019 GMT
            Not After : Sep 12 17:54:48 2029 GMT
        Subject: C=US, ST=CA, L=SanFrancisco, O=Fort-Funston, OU=MyOrganizationalUnit, CN=c02/name=EasyRSA/emailAddress=me@myhost.mydomain
        Subject Public Key Info:
            Public Key Algorithm: rsaEncryption
                RSA Public-Key: (2048 bit)
                Modulus:
                    00:db:13:03:dc:6f:96:e3:66:1c:e2:d7:21:f9:7e:
                    cf:5b:08:d4:28:cb:21:b4:2e:f0:d1:a5:aa:dc:e7:
                    ce:a3:49:e2:62:45:db:f0:a5:81:02:6a:b0:97:1f:
                    b1:c8:06:05:e0:ff:85:54:55:ef:c1:d6:8f:b6:62:
                    52:70:a1:46:27:70:51:b8:62:be:b3:4b:4c:57:4f:
                    a5:97:74:fa:d0:2f:f1:46:1c:cc:e9:b0:90:fd:e1:
                    c2:91:b4:3a:b5:57:71:ef:9f:d3:03:01:8f:c5:4f:
                    94:c8:a4:32:16:ec:c6:50:fc:21:1c:fc:d0:d7:75:
                    02:37:87:5a:d0:e7:50:78:13:9e:d4:a9:b3:76:37:
                    07:70:fa:06:a4:32:92:6f:98:95:30:e1:77:35:1a:
                    e7:df:54:01:68:7c:80:be:ab:66:4d:18:95:bf:28:
                    b5:4c:ce:f7:e4:32:10:41:9e:74:85:0a:32:34:fc:
                    90:05:97:b4:f1:7c:f0:45:9d:2e:ff:09:ce:8c:31:
                    f5:ee:fe:f3:5c:a3:9f:90:b1:9d:f7:76:87:dc:cd:
                    16:a2:2d:3a:6f:fc:e4:0c:40:d3:27:d6:a2:e0:1e:
                    55:8c:fd:03:9b:d5:08:aa:95:51:45:14:34:6f:5d:
                    83:3c:d1:74:a4:df:02:bd:71:6a:ad:e4:b5:43:9a:
                    18:ff
                Exponent: 65537 (0x10001)
        X509v3 extensions:
            X509v3 Basic Constraints: 
                CA:FALSE
            Netscape Comment: 
                Easy-RSA Generated Certificate
            X509v3 Subject Key Identifier: 
                F5:BE:D7:90:C2:AE:41:01:47:EC:7B:E9:47:64:73:07:44:57:1B:7E
            X509v3 Authority Key Identifier: 
                keyid:D3:8A:12:54:EB:FD:63:A0:2E:9A:B5:BE:4A:AB:94:CF:32:4E:BE:26
                DirName:/C=US/ST=CA/L=SanFrancisco/O=Fort-Funston/OU=MyOrganizationalUnit/CN=nopass/name=EasyRSA/emailAddress=me@myhost.mydomain
                serial:19:61:FE:83:15:84:A9:5D:69:48:22:50:12:DA:2C:12:2E:24:82:FA

            X509v3 Extended Key Usage: 
                TLS Web Client Authentication
            X509v3 Key Usage: 
                Digital Signature
    Signature Algorithm: sha256WithRSAEncryption
         88:71:7c:e6:80:40:98:6f:f3:d4:dd:01:8b:9d:a5:d4:5f:a9:
         96:ca:88:fd:1a:e2:07:d9:87:d6:17:cf:21:5f:b9:a6:38:24:
         b3:6c:36:4f:52:1a:3e:26:cb:ad:bd:85:11:a0:de:b0:e6:49:
         43:de:35:71:db:36:9f:bd:3b:e7:e4:3f:66:e2:d5:1c:83:ef:
         04:ed:3a:a8:e6:5e:41:ad:92:57:2b:f1:d4:18:74:43:c1:33:
         51:8f:ef:13:ce:1a:08:64:97:b9:f3:a7:50:2f:d7:7f:0b:cd:
         9d:86:73:96:ed:63:1d:72:5f:1a:46:38:5c:6f:fd:9f:3a:7f:
         24:47:ae:6d:cb:76:f4:08:a3:21:f8:15:7e:66:3e:89:7a:a4:
         e9:23:01:3c:b8:d0:14:44:a7:31:a7:6d:2e:11:dc:fb:c0:0c:
         07:36:77:18:02:5a:55:da:bd:95:f8:de:37:55:a4:86:a2:78:
         b6:b9:52:08:f8:cd:5a:eb:ac:b6:65:a2:29:a2:a3:bd:25:cb:
         d3:89:39:92:3a:62:77:20:c4:0b:13:47:21:63:0e:31:6c:12:
         ff:70:54:c1:2d:2d:e5:8a:20:bd:91:c5:5f:d8:fb:2d:47:4f:
         94:23:c3:0f:b4:46:a9:ac:93:dd:b4:ea:e9:2a:a0:69:2b:37:
         2d:ae:5c:8b
-----BEGIN CERTIFICATE-----
MIIFRTCCBC2gAwIBAgIBAzANBgkqhkiG9w0BAQsFADCBrTELMAkGA1UEBhMCVVMx
CzAJBgNVBAgTAkNBMRUwEwYDVQQHEwxTYW5GcmFuY2lzY28xFTATBgNVBAoTDEZv
cnQtRnVuc3RvbjEdMBsGA1UECxMUTXlPcmdhbml6YXRpb25hbFVuaXQxDzANBgNV
BAMTBm5vcGFzczEQMA4GA1UEKRMHRWFzeVJTQTEhMB8GCSqGSIb3DQEJARYSbWVA
bXlob3N0Lm15ZG9tYWluMB4XDTE5MDkxNTE3NTQ0OFoXDTI5MDkxMjE3NTQ0OFow
gaoxCzAJBgNVBAYTAlVTMQswCQYDVQQIEwJDQTEVMBMGA1UEBxMMU2FuRnJhbmNp
c2NvMRUwEwYDVQQKEwxGb3J0LUZ1bnN0b24xHTAbBgNVBAsTFE15T3JnYW5pemF0
aW9uYWxVbml0MQwwCgYDVQQDEwNjMDIxEDAOBgNVBCkTB0Vhc3lSU0ExITAfBgkq
hkiG9w0BCQEWEm1lQG15aG9zdC5teWRvbWFpbjCCASIwDQYJKoZIhvcNAQEBBQAD
ggEPADCCAQoCggEBANsTA9xvluNmHOLXIfl+z1sI1CjLIbQu8NGlqtznzqNJ4mJF
2/ClgQJqsJcfscgGBeD/hVRV78HWj7ZiUnChRidwUbhivrNLTFdPpZd0+tAv8UYc
zOmwkP3hwpG0OrVXce+f0wMBj8VPlMikMhbsxlD8IRz80Nd1AjeHWtDnUHgTntSp
s3Y3B3D6BqQykm+YlTDhdzUa599UAWh8gL6rZk0Ylb8otUzO9+QyEEGedIUKMjT8
kAWXtPF88EWdLv8Jzowx9e7+81yjn5Cxnfd2h9zNFqItOm/85AxA0yfWouAeVYz9
A5vVCKqVUUUUNG9dgzzRdKTfAr1xaq3ktUOaGP8CAwEAAaOCAW8wggFrMAkGA1Ud
EwQCMAAwLQYJYIZIAYb4QgENBCAWHkVhc3ktUlNBIEdlbmVyYXRlZCBDZXJ0aWZp
Y2F0ZTAdBgNVHQ4EFgQU9b7XkMKuQQFH7HvpR2RzB0RXG34wge0GA1UdIwSB5TCB
4oAU04oSVOv9Y6AumrW+SquUzzJOviahgbOkgbAwga0xCzAJBgNVBAYTAlVTMQsw
CQYDVQQIEwJDQTEVMBMGA1UEBxMMU2FuRnJhbmNpc2NvMRUwEwYDVQQKEwxGb3J0
LUZ1bnN0b24xHTAbBgNVBAsTFE15T3JnYW5pemF0aW9uYWxVbml0MQ8wDQYDVQQD
EwZub3Bhc3MxEDAOBgNVBCkTB0Vhc3lSU0ExITAfBgkqhkiG9w0BCQEWEm1lQG15
aG9zdC5teWRvbWFpboIUGWH+gxWEqV1pSCJQEtosEi4kgvowEwYDVR0lBAwwCgYI
KwYBBQUHAwIwCwYDVR0PBAQDAgeAMA0GCSqGSIb3DQEBCwUAA4IBAQCIcXzmgECY
b/PU3QGLnaXUX6mWyoj9GuIH2YfWF88hX7mmOCSzbDZPUho+JsutvYURoN6w5klD
3jVx2zafvTvn5D9m4tUcg+8E7Tqo5l5BrZJXK/HUGHRDwTNRj+8TzhoIZJe586dQ
L9d/C82dhnOW7WMdcl8aRjhcb/2fOn8kR65ty3b0CKMh+BV+Zj6JeqTpIwE8uNAU
RKcxp20uEdz7wAwHNncYAlpV2r2V+N43VaSGoni2uVII+M1a66y2ZaIpoqO9JcvT
iTmSOmJ3IMQLE0chYw4xbBL/cFTBLS3liiC9kcVf2PstR0+UI8MPtEaprJPdtOrp
KqBpKzctrlyL
-----END CERTIFICATE-----
