Certificate:
    Data:
        Version: 3 (0x2)
        Serial Number: 4 (0x4)
        Signature Algorithm: sha256WithRSAEncryption
        Issuer: C=US, ST=CA, L=SanFrancisco, O=Fort-Funston, OU=MyOrganizationalUnit, CN=nopass/name=EasyRSA/emailAddress=me@myhost.mydomain
        Validity
            Not Before: Sep 15 17:55:31 2019 GMT
            Not After : Sep 12 17:55:31 2029 GMT
        Subject: C=US, ST=CA, L=SanFrancisco, O=Fort-Funston, OU=MyOrganizationalUnit, CN=c03/name=EasyRSA/emailAddress=me@myhost.mydomain
        Subject Public Key Info:
            Public Key Algorithm: rsaEncryption
                RSA Public-Key: (2048 bit)
                Modulus:
                    00:c3:8b:48:f1:6d:47:91:a2:9e:6a:87:05:64:d0:
                    7b:5b:04:59:9e:c2:94:2c:fa:a2:b8:33:0e:7d:06:
                    51:3e:9b:e7:d9:58:1f:c0:bf:bb:27:4f:8a:89:0e:
                    f9:04:7e:80:e1:0f:74:aa:e2:a4:a5:0d:df:8f:e6:
                    fe:10:6c:ed:0c:90:9f:f8:ac:74:2a:58:fa:34:92:
                    6a:85:75:f2:01:07:0b:3a:c1:01:e4:70:27:25:94:
                    14:8b:36:5f:df:30:e5:bc:22:e5:29:c9:30:1e:92:
                    19:2a:d4:9e:03:ac:fa:96:95:51:ac:af:87:af:4d:
                    1c:a4:17:19:9c:13:5d:38:8d:ec:60:52:2e:e7:7d:
                    48:85:34:a7:63:f1:73:b5:c0:74:47:5e:88:25:82:
                    b5:b2:07:0c:99:83:21:ea:3f:37:dd:b4:99:28:cf:
                    d0:4e:97:2c:e2:f5:ac:c1:3e:dc:34:b1:c3:49:52:
                    25:9e:12:c5:e2:24:68:58:93:64:e9:46:69:59:b7:
                    ce:fa:d5:3f:d8:bb:27:e5:e5:a1:58:f5:3f:3b:cf:
                    e9:09:da:3a:53:d2:3b:0b:84:24:b2:ce:f9:76:bc:
                    97:66:85:6a:cc:cd:9c:dd:26:af:28:2d:e5:89:ef:
                    98:d1:39:4f:0c:5a:a4:a8:c1:4e:b5:f1:8b:81:93:
                    f5:c9
                Exponent: 65537 (0x10001)
        X509v3 extensions:
            X509v3 Basic Constraints: 
                CA:FALSE
            Netscape Comment: 
                Easy-RSA Generated Certificate
            X509v3 Subject Key Identifier: 
                E2:F7:4E:DC:06:85:0C:C3:A3:8A:A5:C1:E5:27:81:9E:51:DA:37:31
            X509v3 Authority Key Identifier: 
                keyid:D3:8A:12:54:EB:FD:63:A0:2E:9A:B5:BE:4A:AB:94:CF:32:4E:BE:26
                DirName:/C=US/ST=CA/L=SanFrancisco/O=Fort-Funston/OU=MyOrganizationalUnit/CN=nopass/name=EasyRSA/emailAddress=me@myhost.mydomain
                serial:19:61:FE:83:15:84:A9:5D:69:48:22:50:12:DA:2C:12:2E:24:82:FA

            X509v3 Extended Key Usage: 
                TLS Web Client Authentication
            X509v3 Key Usage: 
                Digital Signature
    Signature Algorithm: sha256WithRSAEncryption
         42:ea:61:19:81:ed:1e:a5:29:8e:17:23:6b:2d:c1:0d:13:22:
         e1:bf:87:db:da:3b:ea:6e:d4:67:c5:fe:b5:fa:47:c1:38:5f:
         0e:8b:78:f4:8e:24:20:96:f1:13:00:fa:df:36:80:02:01:9c:
         3f:3e:af:dc:19:1e:0b:59:b8:8d:b3:ec:bb:8c:7a:44:ea:64:
         ac:13:e2:ea:51:fa:e3:8b:13:4a:f0:95:5a:2e:c8:69:d9:58:
         be:e2:6d:3f:2b:97:6b:dd:41:dd:43:94:f2:2f:96:92:aa:7f:
         5c:f1:41:98:ce:af:ad:dc:2d:90:45:30:7a:73:8b:77:87:74:
         be:00:4a:1b:80:41:30:d9:0d:47:2b:25:a5:56:ce:53:58:15:
         04:bb:10:73:0b:33:89:ce:15:7c:07:a2:44:f9:8e:31:7a:1e:
         da:0c:50:c0:9c:da:2d:d0:fe:3e:70:4b:d4:54:1a:0f:36:29:
         4c:73:84:07:69:f2:10:6b:ad:72:44:d3:10:8a:a9:35:7f:42:
         02:1d:95:34:ce:fc:d7:de:ed:92:4a:76:ac:07:aa:06:27:af:
         ee:19:c8:63:97:5f:43:bd:15:32:67:e9:1a:b9:3d:f6:8e:66:
         02:42:07:e5:53:e6:f4:9a:0a:e1:3b:34:be:a7:9c:f7:89:18:
         c7:4d:ce:3b
-----BEGIN CERTIFICATE-----
MIIFRTCCBC2gAwIBAgIBBDANBgkqhkiG9w0BAQsFADCBrTELMAkGA1UEBhMCVVMx
CzAJBgNVBAgTAkNBMRUwEwYDVQQHEwxTYW5GcmFuY2lzY28xFTATBgNVBAoTDEZv
cnQtRnVuc3RvbjEdMBsGA1UECxMUTXlPcmdhbml6YXRpb25hbFVuaXQxDzANBgNV
BAMTBm5vcGFzczEQMA4GA1UEKRMHRWFzeVJTQTEhMB8GCSqGSIb3DQEJARYSbWVA
bXlob3N0Lm15ZG9tYWluMB4XDTE5MDkxNTE3NTUzMVoXDTI5MDkxMjE3NTUzMVow
gaoxCzAJBgNVBAYTAlVTMQswCQYDVQQIEwJDQTEVMBMGA1UEBxMMU2FuRnJhbmNp
c2NvMRUwEwYDVQQKEwxGb3J0LUZ1bnN0b24xHTAbBgNVBAsTFE15T3JnYW5pemF0
aW9uYWxVbml0MQwwCgYDVQQDEwNjMDMxEDAOBgNVBCkTB0Vhc3lSU0ExITAfBgkq
hkiG9w0BCQEWEm1lQG15aG9zdC5teWRvbWFpbjCCASIwDQYJKoZIhvcNAQEBBQAD
ggEPADCCAQoCggEBAMOLSPFtR5GinmqHBWTQe1sEWZ7ClCz6orgzDn0GUT6b59lY
H8C/uydPiokO+QR+gOEPdKripKUN34/m/hBs7QyQn/isdCpY+jSSaoV18gEHCzrB
AeRwJyWUFIs2X98w5bwi5SnJMB6SGSrUngOs+paVUayvh69NHKQXGZwTXTiN7GBS
Lud9SIU0p2Pxc7XAdEdeiCWCtbIHDJmDIeo/N920mSjP0E6XLOL1rME+3DSxw0lS
JZ4SxeIkaFiTZOlGaVm3zvrVP9i7J+XloVj1PzvP6QnaOlPSOwuEJLLO+Xa8l2aF
aszNnN0mrygt5YnvmNE5TwxapKjBTrXxi4GT9ckCAwEAAaOCAW8wggFrMAkGA1Ud
EwQCMAAwLQYJYIZIAYb4QgENBCAWHkVhc3ktUlNBIEdlbmVyYXRlZCBDZXJ0aWZp
Y2F0ZTAdBgNVHQ4EFgQU4vdO3AaFDMOjiqXB5SeBnlHaNzEwge0GA1UdIwSB5TCB
4oAU04oSVOv9Y6AumrW+SquUzzJOviahgbOkgbAwga0xCzAJBgNVBAYTAlVTMQsw
CQYDVQQIEwJDQTEVMBMGA1UEBxMMU2FuRnJhbmNpc2NvMRUwEwYDVQQKEwxGb3J0
LUZ1bnN0b24xHTAbBgNVBAsTFE15T3JnYW5pemF0aW9uYWxVbml0MQ8wDQYDVQQD
EwZub3Bhc3MxEDAOBgNVBCkTB0Vhc3lSU0ExITAfBgkqhkiG9w0BCQEWEm1lQG15
aG9zdC5teWRvbWFpboIUGWH+gxWEqV1pSCJQEtosEi4kgvowEwYDVR0lBAwwCgYI
KwYBBQUHAwIwCwYDVR0PBAQDAgeAMA0GCSqGSIb3DQEBCwUAA4IBAQBC6mEZge0e
pSmOFyNrLcENEyLhv4fb2jvqbtRnxf61+kfBOF8Oi3j0jiQglvETAPrfNoACAZw/
Pq/cGR4LWbiNs+y7jHpE6mSsE+LqUfrjixNK8JVaLshp2Vi+4m0/K5dr3UHdQ5Ty
L5aSqn9c8UGYzq+t3C2QRTB6c4t3h3S+AEobgEEw2Q1HKyWlVs5TWBUEuxBzCzOJ
zhV8B6JE+Y4xeh7aDFDAnNot0P4+cEvUVBoPNilMc4QHafIQa61yRNMQiqk1f0IC
HZU0zvzX3u2SSnasB6oGJ6/uGchjl19DvRUyZ+kauT32jmYCQgflU+b0mgrhOzS+
p5z3iRjHTc47
-----END CERTIFICATE-----
