Certificate:
    Data:
        Version: 3 (0x2)
        Serial Number: 1 (0x1)
        Signature Algorithm: sha256WithRSAEncryption
        Issuer: C=US, ST=CA, L=SanFrancisco, O=Fort-Funston, OU=MyOrganizationalUnit, CN=nopass/name=EasyRSA/emailAddress=me@myhost.mydomain
        Validity
            Not Before: Sep 15 17:52:30 2019 GMT
            Not After : Sep 12 17:52:30 2029 GMT
        Subject: C=US, ST=CA, L=SanFrancisco, O=Fort-Funston, OU=MyOrganizationalUnit, CN=s01/name=EasyRSA/emailAddress=me@myhost.mydomain
        Subject Public Key Info:
            Public Key Algorithm: rsaEncryption
                RSA Public-Key: (2048 bit)
                Modulus:
                    00:da:bd:49:78:8f:0d:92:66:d5:44:6c:89:44:78:
                    50:67:5e:b8:91:84:48:f1:ce:25:df:e6:7c:5d:86:
                    d1:48:fa:44:da:49:cf:47:ae:c5:4e:13:5d:e9:9f:
                    30:a6:64:ae:ae:74:cb:62:ec:c2:4c:a0:d8:2c:35:
                    f8:b4:8e:64:9f:80:5a:c6:b2:35:aa:84:28:37:03:
                    a8:ae:2b:e1:c3:c9:d5:45:cf:4e:40:a9:d8:75:c2:
                    c5:07:d6:4e:10:c6:31:47:a9:be:14:0c:25:81:9f:
                    6e:ef:cc:08:7c:91:d3:ab:31:5a:6c:f8:66:62:0f:
                    bd:0c:da:cc:10:7d:2f:2e:c7:50:bd:0d:99:f6:22:
                    3a:e9:d1:07:b7:df:78:f3:dc:57:ee:16:35:db:90:
                    3b:bb:14:ec:be:a2:c7:c8:6e:86:58:fc:8f:94:75:
                    6b:09:a5:6f:ba:28:25:c4:3e:40:0d:b4:d7:70:92:
                    da:68:15:9c:e0:d8:0f:52:36:ca:ba:11:e0:44:d4:
                    49:3f:19:33:81:ed:bd:c4:63:7b:60:29:17:40:a9:
                    c4:82:de:03:67:12:2f:8c:16:92:0d:95:cb:2a:21:
                    ec:08:e8:16:28:ca:7e:b6:dd:41:17:10:ab:26:d0:
                    ad:c3:60:20:33:5b:c2:df:47:6f:6e:36:1f:cd:2b:
                    c2:e5
                Exponent: 65537 (0x10001)
        X509v3 extensions:
            X509v3 Basic Constraints: 
                CA:FALSE
            Netscape Cert Type: 
                SSL Server
            Netscape Comment: 
                Easy-RSA Generated Server Certificate
            X509v3 Subject Key Identifier: 
                9D:8A:40:D2:43:24:D4:95:C8:96:C5:E8:E0:65:CB:B9:6B:2B:BE:CC
            X509v3 Authority Key Identifier: 
                keyid:D3:8A:12:54:EB:FD:63:A0:2E:9A:B5:BE:4A:AB:94:CF:32:4E:BE:26
                DirName:/C=US/ST=CA/L=SanFrancisco/O=Fort-Funston/OU=MyOrganizationalUnit/CN=nopass/name=EasyRSA/emailAddress=me@myhost.mydomain
                serial:19:61:FE:83:15:84:A9:5D:69:48:22:50:12:DA:2C:12:2E:24:82:FA

            X509v3 Extended Key Usage: 
                TLS Web Server Authentication
            X509v3 Key Usage: 
                Digital Signature, Key Encipherment
    Signature Algorithm: sha256WithRSAEncryption
         8f:11:c9:a4:a0:92:bb:6c:71:cb:d7:b9:2f:81:2c:5a:4a:18:
         1d:25:74:ff:27:5b:e7:7a:a1:04:00:54:8a:f1:8e:64:16:ac:
         65:36:2c:00:91:0b:40:50:08:9a:d7:32:6b:5f:ea:fc:fd:c3:
         fd:ca:94:b5:7e:98:69:c7:d5:c7:55:af:4a:9b:2c:52:91:c4:
         77:11:3a:10:ca:ea:fd:1e:f9:66:a9:3f:96:bd:8e:57:c5:2a:
         b8:b6:4d:15:b5:7e:d4:d7:5a:56:89:f5:ac:e7:f3:8e:be:ff:
         cb:1c:aa:93:56:91:78:35:4a:8e:0c:45:6b:c4:fd:51:19:57:
         fa:83:41:7a:93:16:67:49:1e:b0:68:a6:4c:e6:26:d3:70:05:
         0a:ed:ab:4f:bf:f3:e8:0d:fe:33:c6:9c:0d:d0:93:13:cc:5c:
         91:f5:df:b7:3c:2c:b4:5d:cd:96:e0:7f:9a:79:27:b7:e4:94:
         41:55:6a:d1:f8:0d:ed:5d:9c:4e:a8:c8:04:a1:0a:33:4e:33:
         3c:92:57:cd:8f:f3:74:77:66:c9:f1:8c:4f:0e:cc:f2:84:e7:
         21:ba:91:d4:8b:ec:c8:cf:88:fa:d6:49:af:72:68:34:9c:02:
         8b:53:56:34:3b:2f:65:9e:84:64:20:d3:9c:76:19:3d:bd:f9:
         d2:7a:00:ad
-----BEGIN CERTIFICATE-----
MIIFXzCCBEegAwIBAgIBATANBgkqhkiG9w0BAQsFADCBrTELMAkGA1UEBhMCVVMx
CzAJBgNVBAgTAkNBMRUwEwYDVQQHEwxTYW5GcmFuY2lzY28xFTATBgNVBAoTDEZv
cnQtRnVuc3RvbjEdMBsGA1UECxMUTXlPcmdhbml6YXRpb25hbFVuaXQxDzANBgNV
BAMTBm5vcGFzczEQMA4GA1UEKRMHRWFzeVJTQTEhMB8GCSqGSIb3DQEJARYSbWVA
bXlob3N0Lm15ZG9tYWluMB4XDTE5MDkxNTE3NTIzMFoXDTI5MDkxMjE3NTIzMFow
gaoxCzAJBgNVBAYTAlVTMQswCQYDVQQIEwJDQTEVMBMGA1UEBxMMU2FuRnJhbmNp
c2NvMRUwEwYDVQQKEwxGb3J0LUZ1bnN0b24xHTAbBgNVBAsTFE15T3JnYW5pemF0
aW9uYWxVbml0MQwwCgYDVQQDEwNzMDExEDAOBgNVBCkTB0Vhc3lSU0ExITAfBgkq
hkiG9w0BCQEWEm1lQG15aG9zdC5teWRvbWFpbjCCASIwDQYJKoZIhvcNAQEBBQAD
ggEPADCCAQoCggEBANq9SXiPDZJm1URsiUR4UGdeuJGESPHOJd/mfF2G0Uj6RNpJ
z0euxU4TXemfMKZkrq50y2Lswkyg2Cw1+LSOZJ+AWsayNaqEKDcDqK4r4cPJ1UXP
TkCp2HXCxQfWThDGMUepvhQMJYGfbu/MCHyR06sxWmz4ZmIPvQzazBB9Ly7HUL0N
mfYiOunRB7ffePPcV+4WNduQO7sU7L6ix8huhlj8j5R1awmlb7ooJcQ+QA2013CS
2mgVnODYD1I2yroR4ETUST8ZM4HtvcRje2ApF0CpxILeA2cSL4wWkg2Vyyoh7Ajo
FijKfrbdQRcQqybQrcNgIDNbwt9Hb242H80rwuUCAwEAAaOCAYkwggGFMAkGA1Ud
EwQCMAAwEQYJYIZIAYb4QgEBBAQDAgZAMDQGCWCGSAGG+EIBDQQnFiVFYXN5LVJT
QSBHZW5lcmF0ZWQgU2VydmVyIENlcnRpZmljYXRlMB0GA1UdDgQWBBSdikDSQyTU
lciWxejgZcu5ayu+zDCB7QYDVR0jBIHlMIHigBTTihJU6/1joC6atb5Kq5TPMk6+
JqGBs6SBsDCBrTELMAkGA1UEBhMCVVMxCzAJBgNVBAgTAkNBMRUwEwYDVQQHEwxT
YW5GcmFuY2lzY28xFTATBgNVBAoTDEZvcnQtRnVuc3RvbjEdMBsGA1UECxMUTXlP
cmdhbml6YXRpb25hbFVuaXQxDzANBgNVBAMTBm5vcGFzczEQMA4GA1UEKRMHRWFz
eVJTQTEhMB8GCSqGSIb3DQEJARYSbWVAbXlob3N0Lm15ZG9tYWlughQZYf6DFYSp
XWlIIlAS2iwSLiSC+jATBgNVHSUEDDAKBggrBgEFBQcDATALBgNVHQ8EBAMCBaAw
DQYJKoZIhvcNAQELBQADggEBAI8RyaSgkrtsccvXuS+BLFpKGB0ldP8nW+d6oQQA
VIrxjmQWrGU2LACRC0BQCJrXMmtf6vz9w/3KlLV+mGnH1cdVr0qbLFKRxHcROhDK
6v0e+WapP5a9jlfFKri2TRW1ftTXWlaJ9azn846+/8scqpNWkXg1So4MRWvE/VEZ
V/qDQXqTFmdJHrBopkzmJtNwBQrtq0+/8+gN/jPGnA3QkxPMXJH137c8LLRdzZbg
f5p5J7fklEFVatH4De1dnE6oyAShCjNOMzySV82P83R3ZsnxjE8OzPKE5yG6kdSL
7MjPiPrWSa9yaDScAotTVjQ7L2WehGQg05x2GT29+dJ6AK0=
-----END CERTIFICATE-----
