Certificate:
    Data:
        Version: 3 (0x2)
        Serial Number:
            90:cb:2e:12:33:31:2a:97:16:f7:3a:88:ff:1a:ce:98
        Signature Algorithm: sha256WithRSAEncryption
        Issuer: CN=ersa304
        Validity
            Not Before: Sep 12 14:08:06 2019 GMT
            Not After : Sep  9 14:08:06 2029 GMT
        Subject: CN=c01
        Subject Public Key Info:
            Public Key Algorithm: rsaEncryption
                RSA Public-Key: (2048 bit)
                Modulus:
                    00:9f:a8:1c:0f:d9:6d:eb:ec:6a:a4:ee:e1:96:14:
                    7e:35:cd:e2:ad:95:89:37:6d:e3:50:71:89:4a:bf:
                    57:9f:2d:20:89:f9:ed:0b:4d:b7:b9:37:57:b8:86:
                    3e:da:4f:d1:50:94:18:f4:e5:23:f5:bb:5b:3a:53:
                    82:82:f7:d4:db:12:73:57:4e:d1:09:60:78:91:38:
                    47:db:26:f0:ea:bc:f9:5f:23:d8:98:9c:e3:46:f8:
                    96:4f:32:ec:c2:57:c5:9e:5a:02:d9:27:2e:c7:23:
                    05:80:67:f2:76:e9:0f:65:80:7d:06:52:41:c5:05:
                    66:0e:d5:d6:a9:66:6f:e0:4b:7c:8c:2d:7d:82:08:
                    a2:35:a5:7e:2a:6e:66:15:70:c3:1f:65:47:6b:d0:
                    a7:2f:c6:42:05:de:e6:65:92:78:4f:38:77:f7:cc:
                    34:e2:54:4e:93:e7:9f:6c:ab:59:e3:8a:39:aa:25:
                    94:46:97:70:f5:8b:5c:73:47:4d:ce:b6:f4:84:18:
                    3e:58:81:f3:d6:11:4d:bc:50:58:55:9d:11:31:1e:
                    14:4f:aa:05:dd:f5:97:de:62:48:ae:55:88:13:15:
                    22:92:ca:a9:0e:0c:dc:ab:0f:29:37:ff:19:6f:7b:
                    5c:ce:b5:da:15:78:77:ed:bd:ab:87:92:57:ec:85:
                    9f:6f
                Exponent: 65537 (0x10001)
        X509v3 extensions:
            X509v3 Basic Constraints: 
                CA:FALSE
            X509v3 Subject Key Identifier: 
                A5:B9:1E:C5:43:C8:01:F9:B0:4C:5E:64:36:36:92:D1:9C:E0:6C:2A
            X509v3 Authority Key Identifier: 
                keyid:4E:02:31:11:A4:49:08:E8:CF:67:B9:D1:35:72:34:F6:3E:EE:D8:31
                DirName:/CN=ersa304
                serial:44:DB:6F:4B:FA:A3:C3:A1:AF:82:C2:44:50:5C:33:05:6A:07:6B:F6

            X509v3 Extended Key Usage: 
                TLS Web Client Authentication
            X509v3 Key Usage: 
                Digital Signature
    Signature Algorithm: sha256WithRSAEncryption
         6f:32:d5:d1:4b:36:85:7a:88:fc:89:24:62:10:94:3c:c7:0c:
         73:e3:e8:40:d7:d2:06:a4:5a:d2:9c:c7:7b:36:e5:3c:9b:b7:
         8f:3c:c4:b3:60:24:2d:fb:d2:be:35:8c:fd:ab:a7:21:5d:dd:
         7f:d0:ea:89:8f:9e:e8:53:32:af:da:1b:77:3e:35:92:57:8b:
         1c:1e:63:1c:9c:f5:f8:17:99:57:30:ad:7b:ac:f7:7c:b9:f3:
         2a:d5:9e:4d:2a:8e:72:f6:19:9f:c7:09:ab:9b:9c:a0:39:09:
         dc:30:2a:2e:93:91:fe:19:7f:b3:60:5d:60:fd:d8:99:f1:5c:
         26:74:b4:b8:4f:f7:0c:f4:7a:04:5a:f0:04:98:36:58:d7:67:
         1c:de:da:4a:a7:43:28:d0:5a:36:45:a0:4c:78:17:4f:01:b8:
         7e:ac:fd:1d:07:eb:a0:18:f9:9f:82:ba:8d:b5:44:be:a1:3d:
         48:da:c0:4b:d1:06:12:f2:7d:34:d3:17:73:dc:81:02:6a:39:
         c0:25:ca:be:50:f1:12:07:ec:df:27:76:3d:60:19:12:c2:fe:
         9b:b6:37:ee:ed:07:9a:5d:86:69:f0:91:9c:ad:a3:77:fb:73:
         22:29:3e:c6:77:60:75:8c:09:2a:ff:1e:ad:df:54:15:08:fd:
         f5:27:a8:0e
-----BEGIN CERTIFICATE-----
MIIDSjCCAjKgAwIBAgIRAJDLLhIzMSqXFvc6iP8azpgwDQYJKoZIhvcNAQELBQAw
EjEQMA4GA1UEAwwHZXJzYTMwNDAeFw0xOTA5MTIxNDA4MDZaFw0yOTA5MDkxNDA4
MDZaMA4xDDAKBgNVBAMMA2MwMTCCASIwDQYJKoZIhvcNAQEBBQADggEPADCCAQoC
ggEBAJ+oHA/ZbevsaqTu4ZYUfjXN4q2ViTdt41BxiUq/V58tIIn57QtNt7k3V7iG
PtpP0VCUGPTlI/W7WzpTgoL31NsSc1dO0QlgeJE4R9sm8Oq8+V8j2Jic40b4lk8y
7MJXxZ5aAtknLscjBYBn8nbpD2WAfQZSQcUFZg7V1qlmb+BLfIwtfYIIojWlfipu
ZhVwwx9lR2vQpy/GQgXe5mWSeE84d/fMNOJUTpPnn2yrWeOKOaollEaXcPWLXHNH
Tc629IQYPliB89YRTbxQWFWdETEeFE+qBd31l95iSK5ViBMVIpLKqQ4M3KsPKTf/
GW97XM612hV4d+29q4eSV+yFn28CAwEAAaOBnjCBmzAJBgNVHRMEAjAAMB0GA1Ud
DgQWBBSluR7FQ8gB+bBMXmQ2NpLRnOBsKjBNBgNVHSMERjBEgBROAjERpEkI6M9n
udE1cjT2Pu7YMaEWpBQwEjEQMA4GA1UEAwwHZXJzYTMwNIIURNtvS/qjw6GvgsJE
UFwzBWoHa/YwEwYDVR0lBAwwCgYIKwYBBQUHAwIwCwYDVR0PBAQDAgeAMA0GCSqG
SIb3DQEBCwUAA4IBAQBvMtXRSzaFeoj8iSRiEJQ8xwxz4+hA19IGpFrSnMd7NuU8
m7ePPMSzYCQt+9K+NYz9q6chXd1/0OqJj57oUzKv2ht3PjWSV4scHmMcnPX4F5lX
MK17rPd8ufMq1Z5NKo5y9hmfxwmrm5ygOQncMCouk5H+GX+zYF1g/diZ8VwmdLS4
T/cM9HoEWvAEmDZY12cc3tpKp0Mo0Fo2RaBMeBdPAbh+rP0dB+ugGPmfgrqNtUS+
oT1I2sBL0QYS8n000xdz3IECajnAJcq+UPESB+zfJ3Y9YBkSwv6btjfu7QeaXYZp
8JGcraN3+3MiKT7Gd2B1jAkq/x6t31QVCP31J6gO
-----END CERTIFICATE-----
