Certificate:
    Data:
        Version: 3 (0x2)
        Serial Number: 2 (0x2)
        Signature Algorithm: sha256WithRSAEncryption
        Issuer: C=US, ST=CA, L=SanFrancisco, O=Fort-Funston, OU=MyOrganizationalUnit, CN=nopass/name=EasyRSA/emailAddress=me@myhost.mydomain
        Validity
            Not Before: Sep 15 17:53:32 2019 GMT
            Not After : Sep 12 17:53:32 2029 GMT
        Subject: C=US, ST=CA, L=SanFrancisco, O=Fort-Funston, OU=MyOrganizationalUnit, CN=c01/name=EasyRSA/emailAddress=me@myhost.mydomain
        Subject Public Key Info:
            Public Key Algorithm: rsaEncryption
                RSA Public-Key: (2048 bit)
                Modulus:
                    00:c6:2b:01:64:b4:c2:8b:00:99:f9:73:d9:cc:66:
                    99:51:8d:61:28:0f:44:55:8b:83:19:90:e5:98:86:
                    8a:92:ce:f9:8a:e3:51:8d:9a:25:33:dc:97:52:f0:
                    69:94:af:9a:e1:86:77:01:1f:10:e4:b7:fe:64:b6:
                    e0:8b:b1:73:dd:98:20:58:63:52:2b:d7:8f:bf:bd:
                    2e:10:0e:30:18:26:b3:40:67:16:1e:5e:82:d9:b6:
                    e9:87:5b:e9:f9:a8:20:92:0f:98:a4:00:9d:7f:58:
                    9c:da:83:19:23:d3:c4:4f:92:f9:fa:b5:ac:17:31:
                    1c:5a:7c:35:f9:90:3e:36:bd:25:e4:71:d4:73:c4:
                    db:6e:1e:8a:80:7b:73:96:03:3c:72:4c:1d:a8:e2:
                    50:5a:5a:fe:35:d2:46:9b:b8:81:ce:3a:f3:99:4b:
                    16:8c:b7:e3:40:c2:61:3a:d1:e9:98:60:18:92:2f:
                    b0:6c:1f:cf:90:cb:4f:07:7d:aa:15:69:2d:a2:2c:
                    ad:c4:6d:ad:c2:c0:40:0e:4b:c8:2d:4f:1b:37:4b:
                    51:3a:39:6f:79:5d:21:7f:21:df:ff:62:c4:9c:ac:
                    2c:6c:b7:71:19:78:d7:d2:76:10:22:22:da:17:f2:
                    9a:37:00:50:1d:14:c8:af:af:85:60:64:00:97:f4:
                    92:85
                Exponent: 65537 (0x10001)
        X509v3 extensions:
            X509v3 Basic Constraints: 
                CA:FALSE
            Netscape Comment: 
                Easy-RSA Generated Certificate
            X509v3 Subject Key Identifier: 
                D1:2C:DE:37:A0:63:CF:24:E2:98:A2:FA:84:D6:D8:AA:EF:73:A4:95
            X509v3 Authority Key Identifier: 
                keyid:D3:8A:12:54:EB:FD:63:A0:2E:9A:B5:BE:4A:AB:94:CF:32:4E:BE:26
                DirName:/C=US/ST=CA/L=SanFrancisco/O=Fort-Funston/OU=MyOrganizationalUnit/CN=nopass/name=EasyRSA/emailAddress=me@myhost.mydomain
                serial:19:61:FE:83:15:84:A9:5D:69:48:22:50:12:DA:2C:12:2E:24:82:FA

            X509v3 Extended Key Usage: 
                TLS Web Client Authentication
            X509v3 Key Usage: 
                Digital Signature
    Signature Algorithm: sha256WithRSAEncryption
         1a:9c:97:1f:32:42:17:33:ae:8c:7d:07:cc:89:b4:63:9c:6b:
         03:40:9a:b3:0e:e3:98:28:f0:6e:c6:e7:9e:36:c0:a4:e6:fe:
         3f:21:8e:d5:a9:1f:8a:a0:cf:34:b2:97:26:ec:df:d9:a1:bb:
         ca:51:30:58:ac:52:e0:d9:b9:8c:0f:bd:48:50:32:fb:f6:37:
         0e:06:1a:8f:32:5a:32:c1:68:66:8f:a9:3a:40:51:33:49:32:
         fb:2a:8b:31:96:a8:7a:61:48:8f:71:e7:30:ff:3d:a5:99:da:
         e4:2d:ef:46:d4:5f:75:7c:76:88:85:fd:45:66:96:80:1f:55:
         ce:fe:a1:2d:3b:9d:52:8b:e4:1e:8e:d2:42:82:58:85:07:56:
         a4:67:ae:5c:19:66:e5:14:4b:95:57:32:bc:e9:28:5a:de:9e:
         7d:b2:0d:b3:96:3d:c1:81:68:63:a1:ea:56:42:7f:17:de:a3:
         5f:3d:2b:59:df:9b:97:f6:c6:65:71:eb:d2:02:62:d7:4f:91:
         8e:18:f3:8d:ea:0a:b3:08:15:f0:3e:90:98:ba:bd:c2:e8:8b:
         6e:87:d5:76:03:a0:a4:5d:9d:30:88:98:48:fe:c3:fc:b4:68:
         83:e9:8c:81:95:89:28:96:fb:06:e1:7a:ae:48:5f:07:6b:1f:
         e8:53:e4:62
-----BEGIN CERTIFICATE-----
MIIFRTCCBC2gAwIBAgIBAjANBgkqhkiG9w0BAQsFADCBrTELMAkGA1UEBhMCVVMx
CzAJBgNVBAgTAkNBMRUwEwYDVQQHEwxTYW5GcmFuY2lzY28xFTATBgNVBAoTDEZv
cnQtRnVuc3RvbjEdMBsGA1UECxMUTXlPcmdhbml6YXRpb25hbFVuaXQxDzANBgNV
BAMTBm5vcGFzczEQMA4GA1UEKRMHRWFzeVJTQTEhMB8GCSqGSIb3DQEJARYSbWVA
bXlob3N0Lm15ZG9tYWluMB4XDTE5MDkxNTE3NTMzMloXDTI5MDkxMjE3NTMzMlow
gaoxCzAJBgNVBAYTAlVTMQswCQYDVQQIEwJDQTEVMBMGA1UEBxMMU2FuRnJhbmNp
c2NvMRUwEwYDVQQKEwxGb3J0LUZ1bnN0b24xHTAbBgNVBAsTFE15T3JnYW5pemF0
aW9uYWxVbml0MQwwCgYDVQQDEwNjMDExEDAOBgNVBCkTB0Vhc3lSU0ExITAfBgkq
hkiG9w0BCQEWEm1lQG15aG9zdC5teWRvbWFpbjCCASIwDQYJKoZIhvcNAQEBBQAD
ggEPADCCAQoCggEBAMYrAWS0wosAmflz2cxmmVGNYSgPRFWLgxmQ5ZiGipLO+Yrj
UY2aJTPcl1LwaZSvmuGGdwEfEOS3/mS24Iuxc92YIFhjUivXj7+9LhAOMBgms0Bn
Fh5egtm26Ydb6fmoIJIPmKQAnX9YnNqDGSPTxE+S+fq1rBcxHFp8NfmQPja9JeRx
1HPE224eioB7c5YDPHJMHajiUFpa/jXSRpu4gc4685lLFoy340DCYTrR6ZhgGJIv
sGwfz5DLTwd9qhVpLaIsrcRtrcLAQA5LyC1PGzdLUTo5b3ldIX8h3/9ixJysLGy3
cRl419J2ECIi2hfymjcAUB0UyK+vhWBkAJf0koUCAwEAAaOCAW8wggFrMAkGA1Ud
EwQCMAAwLQYJYIZIAYb4QgENBCAWHkVhc3ktUlNBIEdlbmVyYXRlZCBDZXJ0aWZp
Y2F0ZTAdBgNVHQ4EFgQU0SzeN6BjzyTimKL6hNbYqu9zpJUwge0GA1UdIwSB5TCB
4oAU04oSVOv9Y6AumrW+SquUzzJOviahgbOkgbAwga0xCzAJBgNVBAYTAlVTMQsw
CQYDVQQIEwJDQTEVMBMGA1UEBxMMU2FuRnJhbmNpc2NvMRUwEwYDVQQKEwxGb3J0
LUZ1bnN0b24xHTAbBgNVBAsTFE15T3JnYW5pemF0aW9uYWxVbml0MQ8wDQYDVQQD
EwZub3Bhc3MxEDAOBgNVBCkTB0Vhc3lSU0ExITAfBgkqhkiG9w0BCQEWEm1lQG15
aG9zdC5teWRvbWFpboIUGWH+gxWEqV1pSCJQEtosEi4kgvowEwYDVR0lBAwwCgYI
KwYBBQUHAwIwCwYDVR0PBAQDAgeAMA0GCSqGSIb3DQEBCwUAA4IBAQAanJcfMkIX
M66MfQfMibRjnGsDQJqzDuOYKPBuxueeNsCk5v4/IY7VqR+KoM80spcm7N/ZobvK
UTBYrFLg2bmMD71IUDL79jcOBhqPMloywWhmj6k6QFEzSTL7Kosxlqh6YUiPcecw
/z2lmdrkLe9G1F91fHaIhf1FZpaAH1XO/qEtO51Si+QejtJCgliFB1akZ65cGWbl
FEuVVzK86Sha3p59sg2zlj3BgWhjoepWQn8X3qNfPStZ35uX9sZlcevSAmLXT5GO
GPON6gqzCBXwPpCYur3C6Ituh9V2A6CkXZ0wiJhI/sP8tGiD6YyBlYkolvsG4Xqu
SF8Hax/oU+Ri
-----END CERTIFICATE-----
